(dp1
S'conditional_table_info'
p2
ccollections
OrderedDict
p3
((lp4
(lp5
S'_condition_0'
p6
a(dp7
S'expression_computation'
p8
(lp9
(S'reg[1]'
p10
S'assign_field'
p11
S'standard_metadata_ingress_port'
tp12
a(S'reg[2]'
p13
g11
S'standard_metadata_egress_port'
tp14
a(S'reg[0]'
S'=='
p15
g10
g13
tp16
asS'expression'
p17
S'(standard_metadata.ingress_port == standard_metadata.egress_port)'
p18
sS'next_tables'
p19
(dp20
I00
NsI01
S'mcast_src_pruning'
p21
ssaatRp22
sS'ordered_field_instances_virtual'
p23
(lp24
sS'field_info'
p25
(dp26
S'ethernet__dstAddr'
p27
(dp28
S'bit_offset_hdr'
p29
I0
sS'bit_width'
p30
I48
sS'parent_header'
p31
S'ethernet_'
p32
sS'data_type'
p33
S'byte_buf_t'
p34
sS'mask'
p35
S'0x0'
p36
sS'virtual'
p37
I00
sS'byte_offset_hdr'
p38
I0
sS'byte_offset_phv'
p39
I0
sS'byte_width_phv'
p40
I6
sS'is_metadata'
p41
I00
sS'field_index'
p42
I0
ssS'standard_metadata_egress_spec'
p43
(dp44
g29
I1
sg30
I9
sg31
S'standard_metadata'
p45
sg33
S'uint32_t'
p46
sS'default'
p47
(lp48
I0
aI0
aI0
aI0
asg35
S'0xff010000'
p49
sg37
I00
sg38
I5
sg39
I24
sg40
I4
sg41
I01
sg42
I2
ssS'standard_metadata_ingress_port'
p50
(dp51
g29
I0
sg30
I9
sg31
g45
sg33
g46
sg47
(lp52
I0
aI0
aI0
aI0
asg35
S'0xff010000'
p53
sg37
I00
sg38
I0
sg39
I16
sg40
I4
sg41
I01
sg42
I0
ssS'intrinsic_metadata_lf_field_list'
p54
(dp55
g29
I0
sg30
I32
sg31
S'intrinsic_metadata'
p56
sg33
g46
sg47
(lp57
I0
aI0
aI0
aI0
asg35
S'0xffffffff'
p58
sg37
I00
sg38
I3
sg39
I60
sg40
I4
sg41
I01
sg42
I3
ssS'ethernet__etherType'
p59
(dp60
g29
I0
sg30
I16
sg31
g32
sg33
g46
sg35
S'0xffff0000'
p61
sg37
I00
sg38
I12
sg39
I12
sg40
I4
sg41
I00
sg42
I2
ssS'standard_metadata__padding'
p62
(dp63
g29
I3
sg30
I5
sg31
g45
sg33
g46
sg47
(lp64
I0
aI0
aI0
aI0
asg35
S'0x1f000000'
p65
sg37
I00
sg38
I19
sg39
I44
sg40
I4
sg41
I01
sg42
I7
ssS'standard_metadata_instance_type'
p66
(dp67
g29
I3
sg30
I32
sg31
g45
sg33
g46
sg47
(lp68
I0
aI0
aI0
aI0
asg35
S'0xffffffff'
p69
sg37
I00
sg38
I11
sg39
I36
sg40
I4
sg41
I01
sg42
I5
ssS'intrinsic_metadata_mcast_hash'
p70
(dp71
g29
I0
sg30
I16
sg31
g56
sg33
g46
sg47
(lp72
I0
aI0
aI0
aI0
asg35
S'0xffff0000'
p73
sg37
I00
sg38
I1
sg39
I56
sg40
I4
sg41
I01
sg42
I2
ssS'intrinsic_metadata_mcast_grp'
p74
(dp75
g29
I0
sg30
I4
sg31
g56
sg33
g46
sg47
(lp76
I0
aI0
aI0
aI0
asg35
S'0xf000000'
p77
sg37
I00
sg38
I0
sg39
I48
sg40
I4
sg41
I01
sg42
I0
ssS'standard_metadata_clone_spec'
p78
(dp79
g29
I3
sg30
I32
sg31
g45
sg33
g46
sg47
(lp80
I0
aI0
aI0
aI0
asg35
S'0xffffffff'
p81
sg37
I00
sg38
I15
sg39
I40
sg40
I4
sg41
I01
sg42
I6
ssS'standard_metadata_egress_instance'
p82
(dp83
g29
I3
sg30
I32
sg31
g45
sg33
g46
sg47
(lp84
I0
aI0
aI0
aI0
asg35
S'0xffffffff'
p85
sg37
I00
sg38
I7
sg39
I32
sg40
I4
sg41
I01
sg42
I4
ssS'standard_metadata_egress_port'
p86
(dp87
g29
I2
sg30
I9
sg31
g45
sg33
g46
sg47
(lp88
I0
aI0
aI0
aI0
asg35
S'0xff010000'
p89
sg37
I00
sg38
I6
sg39
I28
sg40
I4
sg41
I01
sg42
I3
ssS'standard_metadata_packet_length'
p90
(dp91
g29
I1
sg30
I32
sg31
g45
sg33
g46
sg47
(lp92
I0
aI0
aI0
aI0
asg35
S'0xffffffff'
p93
sg37
I00
sg38
I1
sg39
I20
sg40
I4
sg41
I01
sg42
I1
ssS'intrinsic_metadata_egress_rid'
p94
(dp95
g29
I4
sg30
I4
sg31
g56
sg33
g46
sg47
(lp96
I0
aI0
aI0
aI0
asg35
S'0xf000000'
p97
sg37
I00
sg38
I0
sg39
I52
sg40
I4
sg41
I01
sg42
I1
ssS'ethernet__srcAddr'
p98
(dp99
g29
I0
sg30
I48
sg31
g32
sg33
g34
sg35
S'0x0'
p100
sg37
I00
sg38
I6
sg39
I6
sg40
I6
sg41
I00
sg42
I1
sssS'calculated_fields_update'
p101
g3
((lp102
(lp103
S'ethernet__dstAddr'
p104
a(lp105
aa(lp106
S'ethernet__srcAddr'
p107
a(lp108
aa(lp109
S'ethernet__etherType'
p110
a(lp111
aatRp112
sS'action_data_tables'
p113
(lp114
sS'num_headers'
p115
I15
sS'ordered_header_instances_virtual'
p116
(lp117
sS'action_info'
p118
(dp119
S'forward'
p120
(dp121
S'field_copies'
p122
c__builtin__
set
p123
((ltRp124
sS'param_byte_widths'
p125
(lp126
I4
asS'param_bit_widths'
p127
(lp128
I9
asS'param_names'
p129
(lp130
S'port'
p131
asS'header_copies'
p132
g123
((ltRp133
sS'call_sequence'
p134
(lp135
(S'MODIFY_FIELD'
(lp136
(S'field_ref'
p137
S'standard_metadata_egress_spec'
tp138
a(S'param'
p139
I0
tp140
atp141
assS'_drop'
p142
(dp143
g122
g123
((ltRp144
sg125
(lp145
sg127
(lp146
sg129
(lp147
sg132
g123
((ltRp148
sg134
(lp149
(S'DROP'
(ltp150
assS'broadcast'
p151
(dp152
g122
g123
((ltRp153
sg125
(lp154
sg127
(lp155
sg129
(lp156
sg132
g123
((ltRp157
sg134
(lp158
(S'MODIFY_FIELD'
(lp159
(g137
S'intrinsic_metadata_mcast_grp'
tp160
a(S'immediate'
p161
(lp162
I0
aI0
aI0
aI1
atp163
atp164
assS'_nop'
p165
(dp166
g122
g123
((ltRp167
sg125
(lp168
sg127
(lp169
sg129
(lp170
sg132
g123
((ltRp171
sg134
(lp172
ssS'mac_learn'
p173
(dp174
g122
g123
((ltRp175
sg125
(lp176
sg127
(lp177
sg129
(lp178
sg132
g123
((ltRp179
sg134
(lp180
(S'GENERATE_DIGEST'
(lp181
(g161
(lp182
I0
aI0
aI4
aI0
atp183
a(S'field_list'
p184
S'mac_learn_digest'
p185
tp186
atp187
asssS'get_type'
p188
cp4c_bm.smart
get_type
p189
sS'calculated_fields_conds'
p190
(lp191
sS'ordered_header_instances_non_virtual'
p192
(lp193
g32
ag45
ag56
asS'tag_stacks_depth'
p194
ccollections
defaultdict
p195
(c__builtin__
int
p196
tRp197
sS'tag_stacks_first'
p198
(dp199
sS'select_tables'
p200
(lp201
sS'aligned_field_info'
p202
(dp203
g27
(dp204
g29
I0
sg30
I48
sg35
I0
sS'name'
p205
S'ethernet__dstAddr'
p206
ssg43
(dp207
g29
I110
sg30
I160
sg35
L663315923677824229544770906057867264L
sg205
S'standard_metadata_ingress_port_packet_length_egress_spec_egress_port_egress_instance_instance_type_clone_spec__padding'
p208
ssg50
(dp209
g29
I151
sg30
I160
sg35
L1458647141945490998441568260777384029383167049728L
sg205
g208
ssg54
(dp210
g29
I0
sg30
I32
sg35
I0
sg205
S'intrinsic_metadata_lf_field_list'
p211
ssg59
(dp212
g29
I0
sg30
I16
sg35
I0
sg205
S'ethernet__etherType'
p213
ssg90
(dp214
g29
I119
sg30
I160
sg35
L2854495384747305764224114002447086742625320960L
sg205
g208
ssg66
(dp215
g29
I37
sg30
I160
sg35
L590295810221266698240L
sg205
g208
ssg70
(dp216
g29
I0
sg30
I16
sg35
I0
sg205
S'intrinsic_metadata_mcast_hash'
p217
ssg74
(dp218
g29
I4
sg30
I8
sg35
I240
sg205
S'intrinsic_metadata_mcast_grp_egress_rid'
p219
ssg78
(dp220
g29
I5
sg30
I160
sg35
I137438953440
sg205
g208
ssg82
(dp221
g29
I69
sg30
I160
sg35
L2535301199866162992634700759040L
sg205
g208
ssg86
(dp222
g29
I101
sg30
I160
sg35
L1295538913433250448329630675894272L
sg205
g208
ssg62
(dp223
g29
I0
sg30
I160
sg35
I31
sg205
g208
ssg94
(dp224
g29
I0
sg30
I8
sg35
I15
sg205
g219
ssg98
(dp225
g29
I0
sg30
I48
sg35
I0
sg205
S'ethernet__srcAddr'
p226
sssS'pre_metadata_name_map'
p227
(dp228
Vlag_hash
p229
Vintrinsic_metadata_mcast_hash
p230
sVreplication_id
p231
Vintrinsic_metadata_egress_rid
p232
sVeg_mcast_group
p233
Vintrinsic_metadata_mcast_grp
p234
ssS'extra_metadata_name_map'
p235
(dp236
sS'field_list_calculations'
p237
(dp238
sS'enable_pre'
p239
I1
sS'parse_states'
p240
g3
((lp241
(lp242
S'start'
p243
a(dp244
S'branch_on'
p245
(lp246
sg134
(lp247
sS'branch_to'
p248
(lp249
(g47
I0
I0
(S'parse_state'
p250
S'parse_ethernet'
p251
ttp252
asaa(lp253
g251
a(dp254
g245
(lp255
sg134
(lp256
(S'extract'
p257
g32
tp258
asg248
(lp259
(g47
I0
I0
(S'table'
p260
S'smac'
p261
ttp262
asaatRp263
sS'public_inc_path'
p264
S''
sS'metadata_offsets'
p265
(dp266
g43
I8
sg54
I44
sg50
I0
sg66
I20
sg70
I40
sg74
I32
sg78
I24
sg86
I12
sg90
I4
sg94
I36
ssS'counter_info'
p267
(dp268
sS'p4_name'
p269
S'l2_switch'
p270
sS'register_info'
p271
(dp272
sS'get_thrift_type'
p273
cp4c_bm.smart
get_thrift_type
p274
sS'p4_prefix'
p275
g270
sS'field_data_types'
p276
(lp277
g46
ag34
asS'meter_info'
p278
(dp279
sS'ordered_field_instances_non_virtual'
p280
(lp281
g27
ag98
ag59
ag50
ag90
ag43
ag86
ag82
ag66
ag78
ag62
ag74
ag94
ag70
ag54
asS'p4_pd_prefix'
p282
S'p4_pd_l2_switch_'
p283
sS'ordered_header_instances_metadata'
p284
(lp285
g45
ag56
asS'learn_quanta'
p286
(lp287
(dp288
S'notify_ack_fn'
p289
S'p4_pd_l2_switch_mac_learn_digest_notify_ack'
p290
sS'msg_type'
p291
S'p4_pd_l2_switch_mac_learn_digest_digest_msg_t'
p292
sS'cb_fn_type'
p293
S'p4_pd_l2_switch_mac_learn_digest_digest_notify_cb'
p294
sS'lf_deregister_fn'
p295
S'lf_mac_learn_digest_deregister'
p296
sS'lf_register_fn'
p297
S'lf_mac_learn_digest_register'
p298
sg205
g185
sS'fields'
p299
g3
((lp300
(lp301
S'ethernet__srcAddr'
p302
aNaa(lp303
S'standard_metadata_ingress_port'
p304
aNaatRp305
sS'deregister_fn'
p306
S'p4_pd_l2_switch_mac_learn_digest_deregister'
p307
sS'entry_type'
p308
S'p4_pd_l2_switch_mac_learn_digest_digest_entry_t'
p309
sS'register_fn'
p310
S'p4_pd_l2_switch_mac_learn_digest_register'
p311
sS'lf_notify_ack_fn'
p312
S'lf_mac_learn_digest_notify_ack'
p313
sasS'ordered_field_instances_non_virtual__name_width'
p314
(lp315
(g206
I48
tp316
a(g226
I48
tp317
a(g213
I16
tp318
a(g208
I160
tp319
a(g219
I8
tp320
a(g217
I16
tp321
a(g211
I32
tp322
asS'action_profiles'
p323
g3
((ltRp324
sS'ordered_header_instances_non_virtual_field__name_width'
p325
(dp326
g45
(lp327
(g208
I160
tp328
asg32
(lp329
(g206
I48
tp330
a(g226
I48
tp331
a(g213
I16
tp332
asg56
(lp333
(g219
I8
tp334
a(g217
I16
tp335
a(g211
I32
tp336
assS'ordered_field_instances_all'
p337
(lp338
g27
ag98
ag59
ag50
ag90
ag43
ag86
ag82
ag66
ag78
ag62
ag74
ag94
ag70
ag54
asS'ordered_header_instances_regular'
p339
(lp340
g32
asS'egress_entry_table'
p341
g6
sS'meta_carry'
p342
(lp343
Vstandard_metadata
p344
asS'metadata_name_map'
p345
(dp346
Vclone_spec
p347
Vstandard_metadata_clone_spec
p348
sVingress_port
p349
Vstandard_metadata_ingress_port
p350
sVegress_port
p351
Vstandard_metadata_egress_port
p352
sVinstance_type
p353
Vstandard_metadata_instance_type
p354
sVegress_spec
p355
Vstandard_metadata_egress_spec
p356
sVpacket_length
p357
Vstandard_metadata_packet_length
p358
ssS'table_info'
p359
g3
((lp360
(lp361
g261
a(dp362
S'packets_counter'
p363
NsS'reordered_match_fields'
p364
(lp365
(S'ethernet__srcAddr'
S'exact'
p366
tp367
asS'has_mask'
p368
I00
sS'match_type'
p369
g366
sS'key_byte_width'
p370
I6
sS'support_timeout'
p371
I00
sS'reordered_match_fields_idx'
p372
(lp373
I0
asS'action_profile'
p374
NsS'min_size'
p375
I512
sS'match_fields'
p376
(lp377
g367
asS'actions_idx'
p378
(dp379
g165
I1
sg173
I0
ssS'registers'
p380
(lp381
sS'meter'
p382
Nsg19
(dp383
g165
S'dmac'
p384
sg173
g384
ssS'with_hit_miss_spec'
p385
I00
sS'action_data_byte_width'
p386
I0
sS'actions'
p387
(lp388
g173
ag165
asS'key_fields_bit_widths'
p389
(lp390
I48
asS'bytes_counter'
p391
NsS'max_size'
p392
I512
sS'big_mask'
p393
(lp394
I255
aI255
aI255
aI255
aI255
aI255
asaa(lp395
g384
a(dp396
g363
Nsg364
(lp397
(S'ethernet__dstAddr'
g366
tp398
asg368
I00
sg369
g366
sg370
I6
sg371
I00
sg372
(lp399
I0
asg374
Nsg375
I512
sg376
(lp400
g398
asg378
(dp401
g120
I0
sg151
I1
ssg380
(lp402
sg382
Nsg19
(dp403
g120
Nsg151
Nssg385
I00
sg386
I4
sg387
(lp404
g120
ag151
asg389
(lp405
I48
asg391
Nsg392
I512
sg393
(lp406
I255
aI255
aI255
aI255
aI255
aI255
asaa(lp407
g21
a(dp408
g363
Nsg364
(lp409
(S'standard_metadata_instance_type'
g366
tp410
asg368
I00
sg369
g366
sg370
I4
sg371
I00
sg372
(lp411
I0
asg374
Nsg375
I1
sg376
(lp412
g410
asg378
(dp413
g142
I1
sg165
I0
ssg380
(lp414
sg382
Nsg19
(dp415
g142
Nsg165
Nssg385
I00
sg386
I0
sg387
(lp416
g165
ag142
asg389
(lp417
I32
asg391
Nsg392
I1
sg393
(lp418
I255
aI255
aI255
aI255
asaatRp419
sS'calculated_fields_verify'
p420
g3
((lp421
(lp422
g104
a(lp423
aa(lp424
g107
a(lp425
aa(lp426
g110
a(lp427
aatRp428
sS'table_types'
p429
(lp430
S'lpm'
p431
ag366
aS'ternary'
p432
aS'range'
p433
aS'valid'
p434
aS'none'
p435
asS'value_sets'
p436
g3
((ltRp437
sS'enable_intrinsic'
p438
I0
sS'header_info'
p439
(dp440
g45
(dp441
g30
I160
sS'base_name'
p442
g45
sg299
(lp443
g50
ag90
ag43
ag86
ag82
ag66
ag78
ag62
asg37
I00
sg39
I16
sg40
I32
sg41
I01
ssg32
(dp444
g30
I112
sg442
g32
sg299
(lp445
g27
ag98
ag59
asg37
I00
sg39
I0
sg40
I16
sg41
I00
ssg56
(dp446
g30
I56
sg442
g56
sg299
(lp447
g74
ag94
ag70
ag54
asg37
I00
sg39
I48
sg40
I16
sg41
I01
sssS'intrinsic_metadata_name_map'
p448
(dp449
Vdeflection_flag
p450
Vintrinsic_metadata_deflection_flag
p451
sVdeq_congest_stat
p452
Vintrinsic_metadata_deq_congest_stat
p453
sVdeflect_on_drop
p454
Vintrinsic_metadata_deflect_on_drop
p455
sVenq_congest_stat
p456
Vintrinsic_metadata_enq_congest_stat
p457
sVingress_global_timestamp
p458
Vintrinsic_metadata_ingress_global_tstamp
p459
sVlf_field_list
p460
Vintrinsic_metadata_lf_field_list
p461
sVenq_qdepth
p462
Vintrinsic_metadata_enq_qdepth
p463
sVdeq_timedelta
p464
Vintrinsic_metadata_deq_timedelta
p465
sVdeq_qdepth
p466
Vintrinsic_metadata_deq_qdepth
p467
sVenq_timestamp
p468
Vintrinsic_metadata_enq_tstamp
p469
ssS'ordered_header_instances_all'
p470
(lp471
g32
ag45
ag56
asS'field_lists'
p472
(dp473
g185
(lp474
(g137
g302
tp475
a(g137
g304
tp476
assS'phv_length'
p477
I64
s.